target datalayout = "e-m:e-p270:32:32-p271:32:32-p272:64:64-i64:64-i128:128-f80:128-n8:16:32:64-S128"
target triple = "x86_64-pc-linux-gnu"

%struct.PROV_ML_DSA_CTX = type { ptr, ptr, [255 x i8], i64, [32 x i8], i64, i32, i32, i32, [256 x i8], i64, i32 }

; Function Attrs: nounwind uwtable
define internal i32 @ml_dsa_sign(ptr noundef %0, ptr noundef %1, ptr noundef %2, i64 noundef %3, ptr noundef %4, i64 noundef %5) #0 {
  %7 = alloca i32, align 4
  %8 = alloca ptr, align 8
  %9 = alloca ptr, align 8
  %10 = alloca ptr, align 8
  %11 = alloca i64, align 8
  %12 = alloca ptr, align 8
  %13 = alloca i64, align 8
  %14 = alloca i32, align 4
  %15 = alloca ptr, align 8
  %16 = alloca [32 x i8], align 16
  %17 = alloca ptr, align 8
  %18 = alloca i32, align 4
  store ptr %0, ptr %8, align 8, !tbaa !3
  store ptr %1, ptr %9, align 8, !tbaa !7
  store ptr %2, ptr %10, align 8, !tbaa !11
  store i64 %3, ptr %11, align 8, !tbaa !13
  store ptr %4, ptr %12, align 8, !tbaa !7
  store i64 %5, ptr %13, align 8, !tbaa !13
  call void @llvm.lifetime.start.p0(i64 4, ptr %14) #6
  store i32 0, ptr %14, align 4, !tbaa !15
  call void @llvm.lifetime.start.p0(i64 8, ptr %15) #6
  %19 = load ptr, ptr %8, align 8, !tbaa !3
  store ptr %19, ptr %15, align 8, !tbaa !3
  call void @llvm.lifetime.start.p0(i64 32, ptr %16) #6
  call void @llvm.lifetime.start.p0(i64 8, ptr %17) #6
  store ptr null, ptr %17, align 8, !tbaa !7
  %20 = call i32 @ossl_prov_is_running()
  %21 = icmp ne i32 %20, 0
  br i1 %21, label %23, label %22

22:                                               ; preds = %6
  store i32 0, ptr %7, align 4
  store i32 1, ptr %18, align 4
  br label %86

23:                                               ; preds = %6
  %24 = load ptr, ptr %9, align 8, !tbaa !7
  %25 = icmp ne ptr %24, null
  br i1 %25, label %26, label %54

26:                                               ; preds = %23
  %27 = load ptr, ptr %15, align 8, !tbaa !3
  %28 = getelementptr inbounds nuw %struct.PROV_ML_DSA_CTX, ptr %27, i32 0, i32 5
  %29 = load i64, ptr %28, align 8, !tbaa !17
  %30 = icmp ne i64 %29, 0
  br i1 %30, label %31, label %35

31:                                               ; preds = %26
  %32 = load ptr, ptr %15, align 8, !tbaa !3
  %33 = getelementptr inbounds nuw %struct.PROV_ML_DSA_CTX, ptr %32, i32 0, i32 4
  %34 = getelementptr inbounds [32 x i8], ptr %33, i64 0, i64 0
  store ptr %34, ptr %17, align 8, !tbaa !7
  br label %53

35:                                               ; preds = %26
  %36 = getelementptr inbounds [32 x i8], ptr %16, i64 0, i64 0
  store ptr %36, ptr %17, align 8, !tbaa !7
  %37 = load ptr, ptr %15, align 8, !tbaa !3
  %38 = getelementptr inbounds nuw %struct.PROV_ML_DSA_CTX, ptr %37, i32 0, i32 7
  %39 = load i32, ptr %38, align 4, !tbaa !21
  %40 = icmp eq i32 %39, 1
  br i1 %40, label %41, label %43

41:                                               ; preds = %35
  %42 = load ptr, ptr %17, align 8, !tbaa !7
  call void @llvm.memset.p0.i64(ptr align 1 %42, i8 0, i64 32, i1 false)
  br label %52

43:                                               ; preds = %35
  %44 = load ptr, ptr %15, align 8, !tbaa !3
  %45 = getelementptr inbounds nuw %struct.PROV_ML_DSA_CTX, ptr %44, i32 0, i32 1
  %46 = load ptr, ptr %45, align 8, !tbaa !22
  %47 = load ptr, ptr %17, align 8, !tbaa !7
  %48 = call i32 @RAND_priv_bytes_ex(ptr noundef %46, ptr noundef %47, i64 noundef 32, i32 noundef 0)
  %49 = icmp sle i32 %48, 0
  br i1 %49, label %50, label %51

50:                                               ; preds = %43
  store i32 0, ptr %7, align 4
  store i32 1, ptr %18, align 4
  br label %86

51:                                               ; preds = %43
  br label %52

52:                                               ; preds = %51, %41
  br label %53

53:                                               ; preds = %52, %31
  br label %54

54:                                               ; preds = %53, %23
  %55 = load ptr, ptr %15, align 8, !tbaa !3
  %56 = getelementptr inbounds nuw %struct.PROV_ML_DSA_CTX, ptr %55, i32 0, i32 0
  %57 = load ptr, ptr %56, align 8, !tbaa !23
  %58 = load ptr, ptr %15, align 8, !tbaa !3
  %59 = getelementptr inbounds nuw %struct.PROV_ML_DSA_CTX, ptr %58, i32 0, i32 11
  %60 = load i32, ptr %59, align 8, !tbaa !24
  %61 = load ptr, ptr %12, align 8, !tbaa !7
  %62 = load i64, ptr %13, align 8, !tbaa !13
  %63 = load ptr, ptr %15, align 8, !tbaa !3
  %64 = getelementptr inbounds nuw %struct.PROV_ML_DSA_CTX, ptr %63, i32 0, i32 2
  %65 = getelementptr inbounds [255 x i8], ptr %64, i64 0, i64 0
  %66 = load ptr, ptr %15, align 8, !tbaa !3
  %67 = getelementptr inbounds nuw %struct.PROV_ML_DSA_CTX, ptr %66, i32 0, i32 3
  %68 = load i64, ptr %67, align 8, !tbaa !25
  %69 = load ptr, ptr %17, align 8, !tbaa !7
  %70 = load ptr, ptr %15, align 8, !tbaa !3
  %71 = getelementptr inbounds nuw %struct.PROV_ML_DSA_CTX, ptr %70, i32 0, i32 6
  %72 = load i32, ptr %71, align 8, !tbaa !26
  %73 = load ptr, ptr %9, align 8, !tbaa !7
  %74 = load ptr, ptr %10, align 8, !tbaa !11
  %75 = load i64, ptr %11, align 8, !tbaa !13
  %76 = call i32 @ossl_ml_dsa_sign(ptr noundef %57, i32 noundef %60, ptr noundef %61, i64 noundef %62, ptr noundef %65, i64 noundef %68, ptr noundef %69, i64 noundef 32, i32 noundef %72, ptr noundef %73, ptr noundef %74, i64 noundef %75)
  store i32 %76, ptr %14, align 4, !tbaa !15
  %77 = load ptr, ptr %17, align 8, !tbaa !7
  %78 = load ptr, ptr %15, align 8, !tbaa !3
  %79 = getelementptr inbounds nuw %struct.PROV_ML_DSA_CTX, ptr %78, i32 0, i32 4
  %80 = getelementptr inbounds [32 x i8], ptr %79, i64 0, i64 0
  %81 = icmp ne ptr %77, %80
  br i1 %81, label %82, label %84

82:                                               ; preds = %54
  %83 = getelementptr inbounds [32 x i8], ptr %16, i64 0, i64 0
  call void @OPENSSL_cleanse(ptr noundef %83, i64 noundef 32)
  br label %84

84:                                               ; preds = %82, %54
  %85 = load i32, ptr %14, align 4, !tbaa !15
  store i32 %85, ptr %7, align 4
  store i32 1, ptr %18, align 4
  br label %86

86:                                               ; preds = %84, %50, %22
  call void @llvm.lifetime.end.p0(i64 8, ptr %17) #6
  call void @llvm.lifetime.end.p0(i64 32, ptr %16) #6
  call void @llvm.lifetime.end.p0(i64 8, ptr %15) #6
  call void @llvm.lifetime.end.p0(i64 4, ptr %14) #6
  %87 = load i32, ptr %7, align 4
  ret i32 %87
}