; Function Attrs: nounwind uwtable
define internal i32 @ml_dsa_sign(ptr noundef %0, ptr noundef %1, ptr noundef %2, i64 noundef %3, ptr noundef %4, i64 noundef %5) #0 {
  %7 = alloca [32 x i8], align 16
  call void @llvm.lifetime.start.p0(i64 32, ptr nonnull %7) #6
  %8 = tail call i32 @ossl_prov_is_running() #6
  %.not = icmp eq i32 %8, 0
  br i1 %.not, label %37, label %9

9:                                                ; preds = %6
  %.not23 = icmp eq ptr %1, null
  br i1 %.not23, label %25, label %10

10:                                               ; preds = %9
  %11 = getelementptr inbounds nuw i8, ptr %0, i64 312
  %12 = load i64, ptr %11, align 8, !tbaa !14
  %.not24 = icmp eq i64 %12, 0
  br i1 %.not24, label %15, label %13

13:                                               ; preds = %10
  %14 = getelementptr inbounds nuw i8, ptr %0, i64 280
  br label %25

15:                                               ; preds = %10
  %16 = getelementptr inbounds nuw i8, ptr %0, i64 324
  %17 = load i32, ptr %16, align 4, !tbaa !15
  %18 = icmp eq i32 %17, 1
  br i1 %18, label %19, label %20

19:                                               ; preds = %15
  call void @llvm.memset.p0.i64(ptr noundef nonnull align 16 dereferenceable(32) %7, i8 0, i64 32, i1 false)
  br label %25

20:                                               ; preds = %15
  %21 = getelementptr inbounds nuw i8, ptr %0, i64 8
  %22 = load ptr, ptr %21, align 8, !tbaa !3
  %23 = call i32 @RAND_priv_bytes_ex(ptr noundef %22, ptr noundef nonnull %7, i64 noundef 32, i32 noundef 0) #6
  %24 = icmp slt i32 %23, 1
  br i1 %24, label %37, label %25

25:                                               ; preds = %13, %20, %19, %9
  %.0 = phi ptr [ %14, %13 ], [ %7, %19 ], [ %7, %20 ], [ null, %9 ]
  %26 = load ptr, ptr %0, align 8, !tbaa !16
  %27 = getelementptr inbounds nuw i8, ptr %0, i64 600
  %28 = load i32, ptr %27, align 8, !tbaa !17
  %29 = getelementptr inbounds nuw i8, ptr %0, i64 16
  %30 = getelementptr inbounds nuw i8, ptr %0, i64 272
  %31 = load i64, ptr %30, align 8, !tbaa !18
  %32 = getelementptr inbounds nuw i8, ptr %0, i64 320
  %33 = load i32, ptr %32, align 8, !tbaa !12
  %34 = call i32 @ossl_ml_dsa_sign(ptr noundef %26, i32 noundef %28, ptr noundef %4, i64 noundef %5, ptr noundef nonnull %29, i64 noundef %31, ptr noundef %.0, i64 noundef 32, i32 noundef %33, ptr noundef %1, ptr noundef %2, i64 noundef %3) #6
  %35 = getelementptr inbounds nuw i8, ptr %0, i64 280
  %.not25 = icmp eq ptr %.0, %35
  br i1 %.not25, label %37, label %36

36:                                               ; preds = %25
  call void @OPENSSL_cleanse(ptr noundef nonnull %7, i64 noundef 32) #6
  br label %37

37:                                               ; preds = %25, %36, %20, %6
  %.022 = phi i32 [ 0, %6 ], [ 0, %20 ], [ %34, %36 ], [ %34, %25 ]
  call void @llvm.lifetime.end.p0(i64 32, ptr nonnull %7) #6
  ret i32 %.022
}